; Function Attrs: mustprogress uwtable
define internal noundef nonnull ptr @"_ZNSt17_Function_handlerIFPN7xgboost15GradientBoosterEPKNS0_17LearnerModelParamEPKNS0_7ContextEENS0_3gbm3$_8EE9_M_invokeERKSt9_Any_dataOS5_OS8_"(ptr nonnull readnone align 8 captures(none) %0, ptr noundef nonnull readonly align 8 captures(none) dereferenceable(8) %1, ptr noundef nonnull readonly align 8 captures(none) dereferenceable(8) %2) #4 align 2 personality ptr @__gxx_personality_v0 {
  %.val = load ptr, ptr %1, align 8, !tbaa !1166
  %.val3 = load ptr, ptr %2, align 8, !tbaa !1167
  %4 = tail call noalias noundef nonnull dereferenceable(736) ptr @_Znwm(i64 noundef 736) #40
  invoke void @_ZN7xgboost3gbm6GBTreeC2EPKNS_17LearnerModelParamEPKNS_7ContextE(ptr noundef nonnull align 8 dereferenceable(736) %4, ptr noundef %.val, ptr noundef %.val3)
          to label %"_ZSt10__invoke_rIPN7xgboost15GradientBoosterERNS0_3gbm3$_8EJPKNS0_17LearnerModelParamEPKNS0_7ContextEEENSt9enable_ifIX16is_invocable_r_vIT_T0_DpT1_EESD_E4typeEOSE_DpOSF_.exit" unwind label %5

5:                                                ; preds = %3
  %6 = landingpad { ptr, i32 }
          cleanup
  tail call void @_ZdlPvm(ptr noundef nonnull %4, i64 noundef 736) #37
  resume { ptr, i32 } %6

"_ZSt10__invoke_rIPN7xgboost15GradientBoosterERNS0_3gbm3$_8EJPKNS0_17LearnerModelParamEPKNS0_7ContextEEENSt9enable_ifIX16is_invocable_r_vIT_T0_DpT1_EESD_E4typeEOSE_DpOSF_.exit": ; preds = %3
  store ptr getelementptr inbounds nuw inrange(-16, 176) (i8, ptr @_ZTVN7xgboost3gbm4DartE, i64 16), ptr %4, align 8, !tbaa !104
  %7 = getelementptr inbounds nuw i8, ptr %4, i64 8
  store ptr getelementptr inbounds nuw inrange(-16, 32) (i8, ptr @_ZTVN7xgboost3gbm4DartE, i64 208), ptr %7, align 8, !tbaa !104
  %8 = getelementptr inbounds nuw i8, ptr %4, i64 640
  store i8 0, ptr %8, align 1, !tbaa !487
  %9 = getelementptr inbounds nuw i8, ptr %4, i64 664
  tail call void @llvm.memset.p0.i64(ptr noundef nonnull align 8 dereferenceable(72) %9, i8 0, i64 72, i1 false)
  ret ptr %4
}